; Function Attrs: nounwind sspstrong uwtable
define hidden i64 @rb_str_memsize(i64 noundef %0) local_unnamed_addr #1 {
  %2 = icmp eq i64 %0, 0
  %3 = and i64 %0, 7
  %4 = icmp ne i64 %3, 0
  %5 = or i1 %2, %4
  br i1 %5, label %RB_FL_TEST.exit.thread, label %RB_FL_ABLE.exit.i

RB_FL_ABLE.exit.i:                                ; preds = %1
  %6 = inttoptr i64 %0 to ptr
  %7 = load i64, ptr %6, align 8, !tbaa !7
  %8 = and i64 %7, 31
  %.not.i = icmp ne i64 %8, 27
  %9 = and i64 %7, 1073754112
  %10 = icmp eq i64 %9, 8192
  %or.cond = and i1 %.not.i, %10
  br i1 %or.cond, label %11, label %RB_FL_TEST.exit.thread

11:                                               ; preds = %RB_FL_ABLE.exit.i
  %12 = getelementptr inbounds nuw i8, ptr %6, i64 32
  %13 = load i64, ptr %12, align 8, !tbaa !19
  %14 = and i64 %7, 532676608
  %switch.i.i = icmp samesign ult i64 %14, 12582912
  br i1 %switch.i.i, label %25, label %15

15:                                               ; preds = %11
  %16 = trunc i64 %7 to i32
  %17 = lshr i32 %16, 22
  %18 = and i32 %17, 127
  %19 = icmp eq i32 %18, 127
  br i1 %19, label %20, label %RB_ENCODING_GET.exit

20:                                               ; preds = %15
  %21 = tail call i32 @rb_enc_get_index(i64 noundef %0) #29
  br label %RB_ENCODING_GET.exit

RB_ENCODING_GET.exit:                             ; preds = %15, %20
  %.0.i5 = phi i32 [ %21, %20 ], [ %18, %15 ]
  %22 = tail call ptr @rb_enc_from_index(i32 noundef %.0.i5) #29
  %23 = getelementptr i8, ptr %22, i64 20
  %.val = load i32, ptr %23, align 4, !tbaa !14
  %24 = sext i32 %.val to i64
  br label %25

25:                                               ; preds = %11, %RB_ENCODING_GET.exit
  %26 = phi i64 [ %24, %RB_ENCODING_GET.exit ], [ 1, %11 ]
  %27 = add i64 %26, %13
  br label %RB_FL_TEST.exit.thread

RB_FL_TEST.exit.thread:                           ; preds = %RB_FL_ABLE.exit.i, %1, %25
  %.0 = phi i64 [ %27, %25 ], [ 0, %1 ], [ 0, %RB_FL_ABLE.exit.i ]
  ret i64 %.0
}